target datalayout = "e-m:e-p270:32:32-p271:32:32-p272:64:64-i64:64-i128:128-f80:128-n8:16:32:64-S128"
target triple = "x86_64-pc-linux-gnu"

%"class.icu_77::FieldPositionIterator" = type <{ %"class.icu_77::UObject", ptr, i32, [4 x i8] }>
%"class.icu_77::UObject" = type { ptr }

; Function Attrs: mustprogress uwtable
define noundef zeroext i1 @_ZNK6icu_7721FieldPositionIteratoreqERKS0_(ptr noundef nonnull align 8 dereferenceable(20) %0, ptr noundef nonnull align 8 dereferenceable(20) %1) #3 align 2 {
  %3 = alloca i1, align 1
  %4 = alloca ptr, align 8
  %5 = alloca ptr, align 8
  store ptr %0, ptr %4, align 8, !tbaa !3
  store ptr %1, ptr %5, align 8, !tbaa !3
  %6 = load ptr, ptr %4, align 8
  %7 = load ptr, ptr %5, align 8, !tbaa !3
  %8 = icmp eq ptr %7, %6
  br i1 %8, label %9, label %10

9:                                                ; preds = %2
  store i1 true, ptr %3, align 1
  br label %42

10:                                               ; preds = %2
  %11 = getelementptr inbounds nuw %"class.icu_77::FieldPositionIterator", ptr %6, i32 0, i32 2
  %12 = load i32, ptr %11, align 8, !tbaa !15
  %13 = load ptr, ptr %5, align 8, !tbaa !3
  %14 = getelementptr inbounds nuw %"class.icu_77::FieldPositionIterator", ptr %13, i32 0, i32 2
  %15 = load i32, ptr %14, align 8, !tbaa !15
  %16 = icmp ne i32 %12, %15
  br i1 %16, label %17, label %18

17:                                               ; preds = %10
  store i1 false, ptr %3, align 1
  br label %42

18:                                               ; preds = %10
  %19 = getelementptr inbounds nuw %"class.icu_77::FieldPositionIterator", ptr %6, i32 0, i32 1
  %20 = load ptr, ptr %19, align 8, !tbaa !10
  %21 = icmp ne ptr %20, null
  br i1 %21, label %27, label %22

22:                                               ; preds = %18
  %23 = load ptr, ptr %5, align 8, !tbaa !3
  %24 = getelementptr inbounds nuw %"class.icu_77::FieldPositionIterator", ptr %23, i32 0, i32 1
  %25 = load ptr, ptr %24, align 8, !tbaa !10
  %26 = icmp eq ptr %25, null
  store i1 %26, ptr %3, align 1
  br label %42

27:                                               ; preds = %18
  %28 = load ptr, ptr %5, align 8, !tbaa !3
  %29 = getelementptr inbounds nuw %"class.icu_77::FieldPositionIterator", ptr %28, i32 0, i32 1
  %30 = load ptr, ptr %29, align 8, !tbaa !10
  %31 = icmp ne ptr %30, null
  br i1 %31, label %32, label %39

32:                                               ; preds = %27
  %33 = getelementptr inbounds nuw %"class.icu_77::FieldPositionIterator", ptr %6, i32 0, i32 1
  %34 = load ptr, ptr %33, align 8, !tbaa !10
  %35 = load ptr, ptr %5, align 8, !tbaa !3
  %36 = getelementptr inbounds nuw %"class.icu_77::FieldPositionIterator", ptr %35, i32 0, i32 1
  %37 = load ptr, ptr %36, align 8, !tbaa !10
  %38 = call noundef zeroext i1 @_ZNK6icu_779UVector32eqERKS0_(ptr noundef nonnull align 8 dereferenceable(32) %34, ptr noundef nonnull align 8 dereferenceable(32) %37)
  br label %40

39:                                               ; preds = %27
  br label %40

40:                                               ; preds = %39, %32
  %41 = phi i1 [ %38, %32 ], [ false, %39 ]
  store i1 %41, ptr %3, align 1
  br label %42

42:                                               ; preds = %40, %22, %17, %9
  %43 = load i1, ptr %3, align 1
  ret i1 %43
}