; Function Attrs: mustprogress uwtable
define noundef zeroext i1 @_ZNK6icu_7721FieldPositionIteratoreqERKS0_(ptr noundef nonnull readonly align 8 dereferenceable(20) %0, ptr noundef nonnull readonly align 8 dereferenceable(20) %1) local_unnamed_addr #3 align 2 {
  %3 = icmp eq ptr %1, %0
  br i1 %3, label %17, label %4

4:                                                ; preds = %2
  %5 = getelementptr inbounds nuw i8, ptr %0, i64 16
  %6 = load i32, ptr %5, align 8, !tbaa !13
  %7 = getelementptr inbounds nuw i8, ptr %1, i64 16
  %8 = load i32, ptr %7, align 8, !tbaa !13
  %.not = icmp eq i32 %6, %8
  br i1 %.not, label %9, label %17

9:                                                ; preds = %4
  %10 = getelementptr inbounds nuw i8, ptr %0, i64 8
  %11 = load ptr, ptr %10, align 8, !tbaa !6
  %.not11 = icmp eq ptr %11, null
  %12 = getelementptr inbounds nuw i8, ptr %1, i64 8
  %13 = load ptr, ptr %12, align 8, !tbaa !6
  %14 = icmp eq ptr %13, null
  %brmerge = select i1 %.not11, i1 true, i1 %14
  %.mux = select i1 %.not11, i1 %14, i1 false
  br i1 %brmerge, label %17, label %15

15:                                               ; preds = %9
  %16 = tail call noundef zeroext i1 @_ZNK6icu_779UVector32eqERKS0_(ptr noundef nonnull align 8 dereferenceable(32) %11, ptr noundef nonnull align 8 dereferenceable(32) %13)
  br label %17

17:                                               ; preds = %9, %15, %4, %2
  %.0 = phi i1 [ true, %2 ], [ false, %4 ], [ %16, %15 ], [ %.mux, %9 ]
  ret i1 %.0
}